(dp1
S'osm/cache-MaconCounty,Illinois,US-nodeid-to-neighbor-nid.txt'
p2
S'56~'
p3
sS'osm/cache-OrangeCounty,Florida,US-nids-to-waytag.txt'
p4
S'59~'
p5
sS'osm/cache-KankakeeCounty,Illinois,US-nodeid-to-neighbor-nid.txt'
p6
S'44~'
p7
sS'osm/cache-Suining,Sichuan,CN-nids-to-waytag.txt'
p8
S'65~'
p9
sS'osm/cache-Chengdu,Sichuan,CN-nodeid-to-lat-lng.txt'
p10
S'13~'
p11
sS'osm/cache-California,US-nids-to-waytag.txt'
p12
S'0~'
p13
sS'osm/cache-Suining,Sichuan,CN-nodeid-to-lat-lng.txt'
p14
S'67~'
p15
sS'osm/cache-California,US-nodeid-to-neighbor-nid.txt'
p16
S'2~'
p17
sS'osm/cache-MaconCounty,Illinois,US-nids-to-waytag.txt'
p18
S'53~'
p19
sS'osm/cache-FordCounty,Illinois,US-nids-to-speed.txt'
p20
S'23~'
p21
sS'osm/cache-FordCounty,Illinois,US-important-nids.txt'
p22
S'22~'
p23
sS'osm/cache-MaconCounty,Illinois,US-nids-to-speed.txt'
p24
S'52~'
p25
sS'osm/cache-ChampaignCounty,Illinois,US-important-nids.txt'
p26
S'3~'
p27
sS'osm/cache-California,US-nids-to-speed.txt'
p28
S'89~'
p29
sS'osm/cache-California,US-nid-to-elevation.txt'
p30
S'90~'
p31
sS'osm/cache-CookCounty,Illinois,US-nodeid-to-lat-lng.txt'
p32
S'19~'
p33
sS'osm/cache-Chengdu,Sichuan,CN-nodeid-to-neighbor-nid.txt'
p34
S'14~'
p35
sS'osm/cache-KankakeeCounty,Illinois,US-nodeid-to-lat-lng.txt'
p36
S'43~'
p37
sS'osm/cache-emailTime2userInfo.txt'
p38
S'21~'
p39
sS'osm/cache-OrangeCounty,Florida,US-nid-to-elevation.txt'
p40
S'60~'
p41
sS'osm/cache-NewYork,US-nodeid-to-lat-lng.txt'
p42
S'82~'
p43
sS'osm/cache-LakeCounty,Indiana,US-important-nids.txt'
p44
S'45~'
p45
sS'osm/cache-MaconCounty,Illinois,US-nid-to-elevation.txt'
p46
S'54~'
p47
sS'osm/cache-LakeCounty,Indiana,US-nodeid-to-neighbor-nid.txt'
p48
S'50~'
p49
sS'osm/cache-ChampaignCounty,Illinois,US-nid-to-elevation.txt'
p50
S'6~'
p51
sS'osm/cache-Chengdu,Sichuan,CN-nid-to-elevation.txt'
p52
S'12~'
p53
sS'osm/cache-ChampaignCounty,Illinois,US-nids-to-waytag.txt'
p54
S'5~'
p55
sS'osm/cache-Suining,Sichuan,CN-important-nids.txt'
p56
S'63~'
p57
sS'osm/cache-CookCounty,Illinois,US-nid-to-elevation.txt'
p58
S'18~'
p59
sS'osm/cache-NewYork,US-nodeid-to-neighbor-nid.txt'
p60
S'83~'
p61
sS'osm/cache-ChampaignCounty,Illinois,US-nids-to-speed.txt'
p62
S'4~'
p63
sS'osm/cache-FordCounty,Illinois,US-nid-to-elevation.txt'
p64
S'25~'
p65
sS'osm/cache-LakeCounty,Indiana,US-nids-to-speed.txt'
p66
S'46~'
p67
sS'osm/cache-Illinois,US-nodeid-to-lat-lng.txt'
p68
S'31~'
p69
sS'osm/cache-VermilionCounty,Illinois,US-nids-to-waytag.txt'
p70
S'71~'
p71
sS'osm/cache-KankakeeCounty,Illinois,US-important-nids.txt'
p72
S'39~'
p73
sS'osm/cache-VermilionCounty,Illinois,US-important-nids.txt'
p74
S'69~'
p75
sS'osm/cache-Suining,Sichuan,CN-nodeid-to-neighbor-nid.txt'
p76
S'68~'
p77
sS'osm/cache-KankakeeCounty,Illinois,US-nids-to-waytag.txt'
p78
S'41~'
p79
sS'osm/cache-Chengdu,Sichuan,CN-nids-to-speed.txt'
p80
S'10~'
p81
sS'osm/cache-VermilionCounty,Illinois,US-nodeid-to-lat-lng.txt'
p82
S'73~'
p83
sS'osm/cache-Indiana,US-nids-to-speed.txt'
p84
S'84~'
p85
sS'osm/cache-ChampaignCounty,Illinois,US-nodeid-to-lat-lng.txt'
p86
S'7~'
p87
sS'osm/cache-OrangeCounty,Florida,US-nids-to-speed.txt'
p88
S'58~'
p89
sS'osm/cache-MaconCounty,Illinois,US-important-nids.txt'
p90
S'51~'
p91
sS'osm/cache-CookCounty,Illinois,US-nodeid-to-neighbor-nid.txt'
p92
S'20~'
p93
sS'osm/cache-Washington,US-nid-to-elevation.txt'
p94
S'76~'
p95
sS'osm/cache-IroquoisCounty,Illinois,US-nids-to-speed.txt'
p96
S'34~'
p97
sS'osm/cache-LakeCounty,Indiana,US-nids-to-waytag.txt'
p98
S'47~'
p99
sS'osm/cache-IroquoisCounty,Illinois,US-nodeid-to-lat-lng.txt'
p100
S'37~'
p101
sS'osm/cache-KankakeeCounty,Illinois,US-nids-to-speed.txt'
p102
S'40~'
p103
sS'osm/cache-FordCounty,Illinois,US-nodeid-to-neighbor-nid.txt'
p104
S'27~'
p105
sS'osm/cache-VermilionCounty,Illinois,US-nodeid-to-neighbor-nid.txt'
p106
S'74~'
p107
sS'osm/cache-ChampaignCounty,Illinois,US-nodeid-to-neighbor-nid.txt'
p108
S'8~'
p109
sS'osm/cache-IroquoisCounty,Illinois,US-nodeid-to-neighbor-nid.txt'
p110
S'38~'
p111
sS'osm/cache-Illinois,US-nodeid-to-neighbor-nid.txt'
p112
S'32~'
p113
sS'osm/cache-VermilionCounty,Illinois,US-nid-to-elevation.txt'
p114
S'72~'
p115
sS'osm/cache-KankakeeCounty,Illinois,US-nid-to-elevation.txt'
p116
S'42~'
p117
sS'osm/cache-LakeCounty,Indiana,US-nodeid-to-lat-lng.txt'
p118
S'49~'
p119
sS'osm/cache-NewYork,US-nids-to-waytag.txt'
p120
S'80~'
p121
sS'osm/cache-OrangeCounty,Florida,US-nodeid-to-lat-lng.txt'
p122
S'61~'
p123
sS'osm/cache-IroquoisCounty,Illinois,US-nid-to-elevation.txt'
p124
S'36~'
p125
sS'osm/cache-FordCounty,Illinois,US-nodeid-to-lat-lng.txt'
p126
S'26~'
p127
sS'osm/cache-Washington,US-nodeid-to-lat-lng.txt'
p128
S'77~'
p129
sS'osm/cache-OrangeCounty,Florida,US-important-nids.txt'
p130
S'57~'
p131
sS'osm/cache-VermilionCounty,Illinois,US-nids-to-speed.txt'
p132
S'70~'
p133
sS'osm/cache-Illinois,US-nids-to-waytag.txt'
p134
S'29~'
p135
sS'osm/cache-Washington,US-nids-to-waytag.txt'
p136
S'75~'
p137
sS'osm/cache-IroquoisCounty,Illinois,US-nids-to-waytag.txt'
p138
S'35~'
p139
sS'osm/cache-NewYork,US-nid-to-elevation.txt'
p140
S'81~'
p141
sS'osm/cache-California,US-nodeid-to-lat-lng.txt'
p142
S'1~'
p143
sS'osm/cache-Washington,US-nodeid-to-neighbor-nid.txt'
p144
S'78~'
p145
sS'osm/cache-Suining,Sichuan,CN-nid-to-elevation.txt'
p146
S'66~'
p147
sS'osm/cache-Illinois,US-nids-to-speed.txt'
p148
S'28~'
p149
sS'osm/cache-MaconCounty,Illinois,US-nodeid-to-lat-lng.txt'
p150
S'55~'
p151
sS'osm/cache-Indiana,US-nodeid-to-lat-lng.txt'
p152
S'87~'
p153
sS'osm/cache-IroquoisCounty,Illinois,US-important-nids.txt'
p154
S'33~'
p155
sS'osm/cache-NewYork,US-nids-to-speed.txt'
p156
S'79~'
p157
sS'osm/cache-CookCounty,Illinois,US-important-nids.txt'
p158
S'15~'
p159
sS'osm/cache-Indiana,US-nodeid-to-neighbor-nid.txt'
p160
S'88~'
p161
sS'osm/cache-FordCounty,Illinois,US-nids-to-waytag.txt'
p162
S'24~'
p163
sS'osm/cache-Suining,Sichuan,CN-nids-to-speed.txt'
p164
S'64~'
p165
sS'osm/cache-CookCounty,Illinois,US-nids-to-waytag.txt'
p166
S'17~'
p167
sS'osm/cache-Illinois,US-nid-to-elevation.txt'
p168
S'30~'
p169
sS'osm/cache-OrangeCounty,Florida,US-nodeid-to-neighbor-nid.txt'
p170
S'62~'
p171
sS'osm/cache-Chengdu,Sichuan,CN-important-nids.txt'
p172
S'9~'
p173
sS'osm/cache-Indiana,US-nid-to-elevation.txt'
p174
S'86~'
p175
sS'osm/cache-Indiana,US-nids-to-waytag.txt'
p176
S'85~'
p177
sS'osm/cache-Chengdu,Sichuan,CN-nids-to-waytag.txt'
p178
S'11~'
p179
sS'osm/cache-LakeCounty,Indiana,US-nid-to-elevation.txt'
p180
S'48~'
p181
sS'osm/cache-CookCounty,Illinois,US-nids-to-speed.txt'
p182
S'16~'
p183
s.