(dp1
S'Chevrolet~|Impala~|2002'
p2
F0.80428908461952264
sS'Hyundai~|Tucson~|2011'
p3
F1.1421030219015571
sS'Ford~|Ranger~|2008'
p4
F1.1470479127166611
sS'Ford~|Taurus~|2002'
p5
F0.82550094590822931
sS'Volkswagen~|CC~|'
p6
F0.74258365078373512
sS'Volkswagen~|CC~|2013'
p7
F0.881012641936884
sS'Volkswagen~|CC~|2016'
p8
F0.77765488243551117
sS'Toyota~|Camry~|2004'
p9
F1.0729938753265487
sS'Toyota~|Corolla~|2010'
p10
F0.97085274614600536
sS'Volkswagen~|CC~|2015'
p11
F0.8567858224512821
sS'Mitsubishi~|Galant~|2002'
p12
F0.96756154220922752
sS'Dodge~|Ram-1500~|2002'
p13
F1.2381059812094761
sS'Subaru~|Impreza~|2010'
p14
F0.86199396340112344
sS'Toyota~|Celica~|2000'
p15
F1.1199494522380806
sS'Ford~|E-250~|2011'
p16
F0.80376211511818374
sS'~|~|'
p17
F0.84125127831678626
sS'Honda~|Accord~|2005'
p18
F0.70282937322731676
sS'Chevrolet~|Impala~|2017'
p19
F0.64222734867458731
sS'Buick~|LeSabre~|2002'
p20
F0.79884456012368854
sS'Ford~|Focus~|2000'
p21
F0.97829157171392978
sS'Volkswagen~|~|'
p22
F0.75577440943690488
sS'Ford~|Fusion~|2010'
p23
F0.84752453279888507
sS'Honda~|Accord~|2008'
p24
F1.0411648345582518
sS'Ford~|Explorer~|2012'
p25
F0.57314506673824273
sS'Nissan~|Altima~|2013'
p26
F0.95304499550703203
sS'Toyota~|Camry~|2016'
p27
F0.80046019082104358
sS'Toyota~|Camry~|2015'
p28
F1.1748201234602789
sS'Toyota~|Camry~|2012'
p29
F0.97643181440105908
sS'Toyota~|Corolla~|2000'
p30
F1.3732020373248817
sS'Mazda~|Mazda6~|2008'
p31
F1.0948266159687849
sS'Mazda~|Mazda6~|2003'
p32
F0.78316178079941068
s.